target datalayout = "e-m:e-p270:32:32-p271:32:32-p272:64:64-i64:64-i128:128-f80:128-n8:16:32:64-S128"
target triple = "x86_64-unknown-linux-gnu"

; Function Attrs: mustprogress nounwind uwtable
define internal noundef signext i8 @_ZL10arrayEqualPKvS0_i(ptr noundef %a1, ptr noundef %a2, i32 noundef %size) #0 {
entry:
  %retval = alloca i8, align 1
  %a1.addr = alloca ptr, align 8
  %a2.addr = alloca ptr, align 8
  %size.addr = alloca i32, align 4
  store ptr %a1, ptr %a1.addr, align 8
  store ptr %a2, ptr %a2.addr, align 8
  store i32 %size, ptr %size.addr, align 4
  %0 = load ptr, ptr %a1.addr, align 8
  %cmp = icmp eq ptr %0, null
  br i1 %cmp, label %land.lhs.true, label %if.end

land.lhs.true:                                    ; preds = %entry
  %1 = load ptr, ptr %a2.addr, align 8
  %cmp1 = icmp eq ptr %1, null
  br i1 %cmp1, label %if.then, label %if.end

if.then:                                          ; preds = %land.lhs.true
  store i8 1, ptr %retval, align 1
  br label %return

if.end:                                           ; preds = %land.lhs.true, %entry
  %2 = load ptr, ptr %a1.addr, align 8
  %cmp2 = icmp ne ptr %2, null
  br i1 %cmp2, label %land.lhs.true3, label %lor.lhs.false

land.lhs.true3:                                   ; preds = %if.end
  %3 = load ptr, ptr %a2.addr, align 8
  %cmp4 = icmp eq ptr %3, null
  br i1 %cmp4, label %if.then8, label %lor.lhs.false

lor.lhs.false:                                    ; preds = %land.lhs.true3, %if.end
  %4 = load ptr, ptr %a1.addr, align 8
  %cmp5 = icmp eq ptr %4, null
  br i1 %cmp5, label %land.lhs.true6, label %if.end9

land.lhs.true6:                                   ; preds = %lor.lhs.false
  %5 = load ptr, ptr %a2.addr, align 8
  %cmp7 = icmp ne ptr %5, null
  br i1 %cmp7, label %if.then8, label %if.end9

if.then8:                                         ; preds = %land.lhs.true6, %land.lhs.true3
  store i8 0, ptr %retval, align 1
  br label %return

if.end9:                                          ; preds = %land.lhs.true6, %lor.lhs.false
  %6 = load ptr, ptr %a1.addr, align 8
  %7 = load ptr, ptr %a2.addr, align 8
  %cmp10 = icmp eq ptr %6, %7
  br i1 %cmp10, label %if.then11, label %if.end12

if.then11:                                        ; preds = %if.end9
  store i8 1, ptr %retval, align 1
  br label %return

if.end12:                                         ; preds = %if.end9
  %8 = load ptr, ptr %a1.addr, align 8
  %9 = load ptr, ptr %a2.addr, align 8
  %10 = load i32, ptr %size.addr, align 4
  %conv = sext i32 %10 to i64
  %call = call i32 @memcmp(ptr noundef %8, ptr noundef %9, i64 noundef %conv) #6
  %cmp13 = icmp eq i32 %call, 0
  %conv14 = zext i1 %cmp13 to i8
  store i8 %conv14, ptr %retval, align 1
  br label %return

return:                                           ; preds = %if.end12, %if.then11, %if.then8, %if.then
  %11 = load i8, ptr %retval, align 1
  ret i8 %11
}