; Function Attrs: mustprogress nofree nounwind willreturn memory(argmem: read) uwtable
define internal fastcc noundef signext i8 @_ZL10arrayEqualPKvS0_i(ptr noundef readonly %a1, ptr noundef readonly %a2, i32 noundef %size) unnamed_addr #11 {
entry:
  %cmp = icmp eq ptr %a1, null
  %cmp1 = icmp eq ptr %a2, null
  %or.cond = and i1 %cmp, %cmp1
  br i1 %or.cond, label %return, label %if.end

if.end:                                           ; preds = %entry
  %cmp2 = icmp ne ptr %a1, null
  %or.cond1 = and i1 %cmp2, %cmp1
  %cmp7 = icmp ne ptr %a2, null
  %or.cond2 = and i1 %cmp, %cmp7
  %or.cond11 = or i1 %or.cond1, %or.cond2
  br i1 %or.cond11, label %return, label %if.end9

if.end9:                                          ; preds = %if.end
  %cmp10 = icmp eq ptr %a1, %a2
  br i1 %cmp10, label %return, label %if.end12

if.end12:                                         ; preds = %if.end9
  %conv = sext i32 %size to i64
  %bcmp = tail call i32 @bcmp(ptr %a1, ptr %a2, i64 %conv)
  %cmp13 = icmp eq i32 %bcmp, 0
  %conv14 = zext i1 %cmp13 to i8
  br label %return

return:                                           ; preds = %if.end9, %if.end, %entry, %if.end12
  %retval.0 = phi i8 [ %conv14, %if.end12 ], [ 1, %entry ], [ 0, %if.end ], [ 1, %if.end9 ]
  ret i8 %retval.0
}